target datalayout = "e-m:e-p270:32:32-p271:32:32-p272:64:64-i64:64-i128:128-f80:128-n8:16:32:64-S128"
target triple = "x86_64-unknown-linux-gnu"

%"class.cvc5::internal::NodeTemplate" = type { ptr }
%"class.cvc5::internal::theory::arith::nl::transcendental::TranscendentalSolver" = type { %"class.cvc5::internal::EnvObj", ptr, i64, %"class.cvc5::internal::theory::arith::nl::transcendental::TranscendentalState", %"class.cvc5::internal::theory::arith::nl::transcendental::ExponentialSolver", %"class.cvc5::internal::theory::arith::nl::transcendental::SineSolver" }
%"class.cvc5::internal::EnvObj" = type { ptr, ptr }
%"class.cvc5::internal::theory::arith::nl::transcendental::TranscendentalState" = type { %"class.cvc5::internal::EnvObj", %"class.cvc5::internal::NodeTemplate", %"class.cvc5::internal::NodeTemplate", %"class.cvc5::internal::NodeTemplate", %"class.cvc5::internal::NodeTemplate", %"class.cvc5::internal::NodeTemplate", ptr, ptr, %"class.cvc5::internal::theory::arith::nl::transcendental::TaylorGenerator", %"class.std::unique_ptr", %"class.cvc5::context::CDHashMap", %"class.cvc5::context::CDHashMap", %"class.cvc5::context::CDHashSet", %"class.std::unordered_map.13", %"class.std::map.27", %"class.std::map.34", %"class.std::unordered_map.39", %"class.cvc5::internal::NodeTemplate", [2 x %"class.cvc5::internal::NodeTemplate"] }
%"class.cvc5::internal::theory::arith::nl::transcendental::TaylorGenerator" = type { %"class.cvc5::internal::NodeTemplate", %"class.std::map", %"class.std::map.0" }
%"class.std::map" = type { %"class.std::_Rb_tree" }
%"class.std::_Rb_tree" = type { %"struct.std::_Rb_tree<cvc5::internal::kind::Kind_t, std::pair<const cvc5::internal::kind::Kind_t, std::map<unsigned long, std::pair<cvc5::internal::NodeTemplate<true>, cvc5::internal::NodeTemplate<true>>>>, std::_Select1st<std::pair<const cvc5::internal::kind::Kind_t, std::map<unsigned long, std::pair<cvc5::internal::NodeTemplate<true>, cvc5::internal::NodeTemplate<true>>>>>, std::less<cvc5::internal::kind::Kind_t>>::_Rb_tree_impl" }
%"struct.std::_Rb_tree<cvc5::internal::kind::Kind_t, std::pair<const cvc5::internal::kind::Kind_t, std::map<unsigned long, std::pair<cvc5::internal::NodeTemplate<true>, cvc5::internal::NodeTemplate<true>>>>, std::_Select1st<std::pair<const cvc5::internal::kind::Kind_t, std::map<unsigned long, std::pair<cvc5::internal::NodeTemplate<true>, cvc5::internal::NodeTemplate<true>>>>>, std::less<cvc5::internal::kind::Kind_t>>::_Rb_tree_impl" = type { %"struct.std::_Rb_tree_key_compare", %"struct.std::_Rb_tree_header" }
%"struct.std::_Rb_tree_key_compare" = type { %"struct.std::less" }
%"struct.std::less" = type { i8 }
%"struct.std::_Rb_tree_header" = type { %"struct.std::_Rb_tree_node_base", i64 }
%"struct.std::_Rb_tree_node_base" = type { i32, ptr, ptr, ptr }
%"class.std::map.0" = type { %"class.std::_Rb_tree.1" }
%"class.std::_Rb_tree.1" = type { %"struct.std::_Rb_tree<cvc5::internal::kind::Kind_t, std::pair<const cvc5::internal::kind::Kind_t, std::map<unsigned long, cvc5::internal::theory::arith::nl::transcendental::TaylorGenerator::ApproximationBounds>>, std::_Select1st<std::pair<const cvc5::internal::kind::Kind_t, std::map<unsigned long, cvc5::internal::theory::arith::nl::transcendental::TaylorGenerator::ApproximationBounds>>>, std::less<cvc5::internal::kind::Kind_t>>::_Rb_tree_impl" }
%"struct.std::_Rb_tree<cvc5::internal::kind::Kind_t, std::pair<const cvc5::internal::kind::Kind_t, std::map<unsigned long, cvc5::internal::theory::arith::nl::transcendental::TaylorGenerator::ApproximationBounds>>, std::_Select1st<std::pair<const cvc5::internal::kind::Kind_t, std::map<unsigned long, cvc5::internal::theory::arith::nl::transcendental::TaylorGenerator::ApproximationBounds>>>, std::less<cvc5::internal::kind::Kind_t>>::_Rb_tree_impl" = type { %"struct.std::_Rb_tree_key_compare", %"struct.std::_Rb_tree_header" }
%"class.std::unique_ptr" = type { %"struct.std::__uniq_ptr_data" }
%"struct.std::__uniq_ptr_data" = type { %"class.std::__uniq_ptr_impl" }
%"class.std::__uniq_ptr_impl" = type { %"class.std::tuple" }
%"class.std::tuple" = type { %"struct.std::_Tuple_impl" }
%"struct.std::_Tuple_impl" = type { %"struct.std::_Head_base.6" }
%"struct.std::_Head_base.6" = type { ptr }
%"class.cvc5::context::CDHashMap" = type { %"class.cvc5::context::ContextObj", %"class.std::unordered_map", ptr, ptr }
%"class.cvc5::context::ContextObj" = type { ptr, ptr, ptr, ptr, ptr }
%"class.std::unordered_map" = type { %"class.std::_Hashtable" }
%"class.std::_Hashtable" = type { ptr, i64, %"struct.std::__detail::_Hash_node_base", i64, %"struct.std::__detail::_Prime_rehash_policy", ptr }
%"struct.std::__detail::_Hash_node_base" = type { ptr }
%"struct.std::__detail::_Prime_rehash_policy" = type { float, i64 }
%"class.cvc5::context::CDHashSet" = type { %"class.cvc5::context::CDInsertHashMap" }
%"class.cvc5::context::CDInsertHashMap" = type { %"class.cvc5::context::ContextObj", ptr, i64 }
%"class.std::unordered_map.13" = type { %"class.std::_Hashtable.14" }
%"class.std::_Hashtable.14" = type { ptr, i64, %"struct.std::__detail::_Hash_node_base", i64, %"struct.std::__detail::_Prime_rehash_policy", ptr }
%"class.std::map.27" = type { %"class.std::_Rb_tree.28" }
%"class.std::_Rb_tree.28" = type { %"struct.std::_Rb_tree<cvc5::internal::NodeTemplate<true>, std::pair<const cvc5::internal::NodeTemplate<true>, std::vector<cvc5::internal::NodeTemplate<true>>>, std::_Select1st<std::pair<const cvc5::internal::NodeTemplate<true>, std::vector<cvc5::internal::NodeTemplate<true>>>>, std::less<cvc5::internal::NodeTemplate<true>>>::_Rb_tree_impl" }
%"struct.std::_Rb_tree<cvc5::internal::NodeTemplate<true>, std::pair<const cvc5::internal::NodeTemplate<true>, std::vector<cvc5::internal::NodeTemplate<true>>>, std::_Select1st<std::pair<const cvc5::internal::NodeTemplate<true>, std::vector<cvc5::internal::NodeTemplate<true>>>>, std::less<cvc5::internal::NodeTemplate<true>>>::_Rb_tree_impl" = type { %"struct.std::_Rb_tree_key_compare.32", %"struct.std::_Rb_tree_header" }
%"struct.std::_Rb_tree_key_compare.32" = type { %"struct.std::less.33" }
%"struct.std::less.33" = type { i8 }
%"class.std::map.34" = type { %"class.std::_Rb_tree.35" }
%"class.std::_Rb_tree.35" = type { %"struct.std::_Rb_tree<cvc5::internal::kind::Kind_t, std::pair<const cvc5::internal::kind::Kind_t, std::vector<cvc5::internal::NodeTemplate<true>>>, std::_Select1st<std::pair<const cvc5::internal::kind::Kind_t, std::vector<cvc5::internal::NodeTemplate<true>>>>, std::less<cvc5::internal::kind::Kind_t>>::_Rb_tree_impl" }
%"struct.std::_Rb_tree<cvc5::internal::kind::Kind_t, std::pair<const cvc5::internal::kind::Kind_t, std::vector<cvc5::internal::NodeTemplate<true>>>, std::_Select1st<std::pair<const cvc5::internal::kind::Kind_t, std::vector<cvc5::internal::NodeTemplate<true>>>>, std::less<cvc5::internal::kind::Kind_t>>::_Rb_tree_impl" = type { %"struct.std::_Rb_tree_key_compare", %"struct.std::_Rb_tree_header" }
%"class.std::unordered_map.39" = type { %"class.std::_Hashtable.40" }
%"class.std::_Hashtable.40" = type { ptr, i64, %"struct.std::__detail::_Hash_node_base", i64, %"struct.std::__detail::_Prime_rehash_policy", ptr }
%"class.cvc5::internal::theory::arith::nl::transcendental::ExponentialSolver" = type { %"class.cvc5::internal::EnvObj", ptr, %"class.std::map.53" }
%"class.std::map.53" = type { %"class.std::_Rb_tree.54" }
%"class.std::_Rb_tree.54" = type { %"struct.std::_Rb_tree<cvc5::internal::NodeTemplate<true>, std::pair<const cvc5::internal::NodeTemplate<true>, bool>, std::_Select1st<std::pair<const cvc5::internal::NodeTemplate<true>, bool>>, std::less<cvc5::internal::NodeTemplate<true>>>::_Rb_tree_impl" }
%"struct.std::_Rb_tree<cvc5::internal::NodeTemplate<true>, std::pair<const cvc5::internal::NodeTemplate<true>, bool>, std::_Select1st<std::pair<const cvc5::internal::NodeTemplate<true>, bool>>, std::less<cvc5::internal::NodeTemplate<true>>>::_Rb_tree_impl" = type { %"struct.std::_Rb_tree_key_compare.32", %"struct.std::_Rb_tree_header" }
%"class.cvc5::internal::theory::arith::nl::transcendental::SineSolver" = type { %"class.cvc5::internal::EnvObj", ptr, %"class.std::map.53", %"class.cvc5::internal::NodeTemplate", %"class.cvc5::internal::NodeTemplate", %"class.std::vector", %"class.std::map.61" }
%"class.std::vector" = type { %"struct.std::_Vector_base" }
%"struct.std::_Vector_base" = type { %"struct.std::_Vector_base<cvc5::internal::NodeTemplate<true>, std::allocator<cvc5::internal::NodeTemplate<true>>>::_Vector_impl" }
%"struct.std::_Vector_base<cvc5::internal::NodeTemplate<true>, std::allocator<cvc5::internal::NodeTemplate<true>>>::_Vector_impl" = type { %"struct.std::_Vector_base<cvc5::internal::NodeTemplate<true>, std::allocator<cvc5::internal::NodeTemplate<true>>>::_Vector_impl_data" }
%"struct.std::_Vector_base<cvc5::internal::NodeTemplate<true>, std::allocator<cvc5::internal::NodeTemplate<true>>>::_Vector_impl_data" = type { ptr, ptr, ptr }
%"class.std::map.61" = type { %"class.std::_Rb_tree.62" }
%"class.std::_Rb_tree.62" = type { %"struct.std::_Rb_tree<cvc5::internal::NodeTemplate<true>, std::pair<const cvc5::internal::NodeTemplate<true>, cvc5::internal::NodeTemplate<true>>, std::_Select1st<std::pair<const cvc5::internal::NodeTemplate<true>, cvc5::internal::NodeTemplate<true>>>, std::less<cvc5::internal::NodeTemplate<true>>>::_Rb_tree_impl" }
%"struct.std::_Rb_tree<cvc5::internal::NodeTemplate<true>, std::pair<const cvc5::internal::NodeTemplate<true>, cvc5::internal::NodeTemplate<true>>, std::_Select1st<std::pair<const cvc5::internal::NodeTemplate<true>, cvc5::internal::NodeTemplate<true>>>, std::less<cvc5::internal::NodeTemplate<true>>>::_Rb_tree_impl" = type { %"struct.std::_Rb_tree_key_compare.32", %"struct.std::_Rb_tree_header" }

; Function Attrs: mustprogress nounwind uwtable
define linkonce_odr hidden void @_ZN4cvc58internal6EnvObjD2Ev(ptr noundef nonnull align 8 dereferenceable(16) %this) unnamed_addr #5 comdat align 2 {
entry:
  %this.addr = alloca ptr, align 8
  store ptr %this, ptr %this.addr, align 8
  ret void
}

; Function Attrs: mustprogress nounwind uwtable
define hidden void @_ZN4cvc58internal6theory5arith2nl14transcendental20TranscendentalSolverD2Ev(ptr noundef nonnull align 8 dereferenceable(960) %this) unnamed_addr #5 align 2 {
entry:
  %this.addr = alloca ptr, align 8
  store ptr %this, ptr %this.addr, align 8
  %this1 = load ptr, ptr %this.addr, align 8
  store ptr getelementptr inbounds ({ [4 x ptr] }, ptr @_ZTVN4cvc58internal6theory5arith2nl14transcendental20TranscendentalSolverE, i32 0, i32 0, i32 2), ptr %this1, align 8
  %d_sineSlv = getelementptr inbounds %"class.cvc5::internal::theory::arith::nl::transcendental::TranscendentalSolver", ptr %this1, i32 0, i32 5
  call void @_ZN4cvc58internal6theory5arith2nl14transcendental10SineSolverD1Ev(ptr noundef nonnull align 8 dereferenceable(160) %d_sineSlv) #3
  %d_expSlv = getelementptr inbounds %"class.cvc5::internal::theory::arith::nl::transcendental::TranscendentalSolver", ptr %this1, i32 0, i32 4
  call void @_ZN4cvc58internal6theory5arith2nl14transcendental17ExponentialSolverD1Ev(ptr noundef nonnull align 8 dereferenceable(72) %d_expSlv) #3
  %d_tstate = getelementptr inbounds %"class.cvc5::internal::theory::arith::nl::transcendental::TranscendentalSolver", ptr %this1, i32 0, i32 3
  call void @_ZN4cvc58internal6theory5arith2nl14transcendental19TranscendentalStateD2Ev(ptr noundef nonnull align 8 dereferenceable(696) %d_tstate) #3
  call void @_ZN4cvc58internal6EnvObjD2Ev(ptr noundef nonnull align 8 dereferenceable(16) %this1) #3
  ret void
}