; Function Attrs: mustprogress nounwind uwtable
define hidden void @_ZN4cvc58internal6theory5arith2nl14transcendental20TranscendentalSolverD2Ev(ptr noundef nonnull align 8 dereferenceable(960) %this) unnamed_addr #4 align 2 {
entry:
  store ptr getelementptr inbounds ({ [4 x ptr] }, ptr @_ZTVN4cvc58internal6theory5arith2nl14transcendental20TranscendentalSolverE, i64 0, i32 0, i64 2), ptr %this, align 8
  %d_sineSlv = getelementptr inbounds i8, ptr %this, i64 800
  tail call void @_ZN4cvc58internal6theory5arith2nl14transcendental10SineSolverD1Ev(ptr noundef nonnull align 8 dereferenceable(160) %d_sineSlv) #21
  %d_expSlv = getelementptr inbounds i8, ptr %this, i64 728
  tail call void @_ZN4cvc58internal6theory5arith2nl14transcendental17ExponentialSolverD1Ev(ptr noundef nonnull align 8 dereferenceable(72) %d_expSlv) #21
  %d_tstate = getelementptr inbounds i8, ptr %this, i64 32
  tail call void @_ZN4cvc58internal6theory5arith2nl14transcendental19TranscendentalStateD2Ev(ptr noundef nonnull align 8 dereferenceable(696) %d_tstate) #21
  ret void
}